; ModuleID = '58/657.c'
source_filename = "58/657.c"
target datalayout = "e-m:e-p270:32:32-p271:32:32-p272:64:64-i64:64-f80:128-n8:16:32:64-S128"
target triple = "x86_64-pc-linux-gnu"

@.str = private unnamed_addr constant [3 x i8] c"%d\00", align 1
@.str.1 = private unnamed_addr constant [4 x i8] c"%d\0A\00", align 1

; Function Attrs: noinline nounwind uwtable
define dso_local i32 @main() #0 {
  %1 = alloca i32, align 4
  %2 = alloca i32, align 4
  %3 = alloca i32, align 4
  %4 = alloca i32, align 4
  %5 = alloca i32, align 4
  %6 = alloca i8**, align 8
  %7 = alloca i8, align 1
  store i32 0, i32* %1, align 4
  %8 = call i32 (i8*, ...) @__isoc99_scanf(i8* getelementptr inbounds ([3 x i8], [3 x i8]* @.str, i64 0, i64 0), i32* %2)
  %9 = call i32 @getchar()
  %10 = trunc i32 %9 to i8
  store i8 %10, i8* %7, align 1
  %11 = call noalias i8* @malloc(i64 8000) #3
  %12 = bitcast i8* %11 to i8**
  store i8** %12, i8*** %6, align 8
  store i32 0, i32* %3, align 4
  br label %13

13:                                               ; preds = %29, %0
  %14 = load i32, i32* %3, align 4
  %15 = load i32, i32* %2, align 4
  %16 = icmp slt i32 %14, %15
  br i1 %16, label %17, label %32

17:                                               ; preds = %13
  %18 = call noalias i8* @malloc(i64 80) #3
  %19 = load i8**, i8*** %6, align 8
  %20 = load i32, i32* %3, align 4
  %21 = sext i32 %20 to i64
  %22 = getelementptr inbounds i8*, i8** %19, i64 %21
  store i8* %18, i8** %22, align 8
  %23 = load i8**, i8*** %6, align 8
  %24 = load i32, i32* %3, align 4
  %25 = sext i32 %24 to i64
  %26 = getelementptr inbounds i8*, i8** %23, i64 %25
  %27 = load i8*, i8** %26, align 8
  %28 = call i32 (i8*, ...) bitcast (i32 (...)* @gets to i32 (i8*, ...)*)(i8* %27)
  br label %29

29:                                               ; preds = %17
  %30 = load i32, i32* %3, align 4
  %31 = add nsw i32 %30, 1
  store i32 %31, i32* %3, align 4
  br label %13

32:                                               ; preds = %13
  store i32 0, i32* %3, align 4
  br label %33

33:                                               ; preds = %207, %32
  %34 = load i32, i32* %3, align 4
  %35 = load i32, i32* %2, align 4
  %36 = icmp slt i32 %34, %35
  br i1 %36, label %37, label %210

37:                                               ; preds = %33
  store i32 0, i32* %4, align 4
  store i32 0, i32* %5, align 4
  %38 = load i8**, i8*** %6, align 8
  %39 = load i32, i32* %3, align 4
  %40 = sext i32 %39 to i64
  %41 = getelementptr inbounds i8*, i8** %38, i64 %40
  %42 = load i8*, i8** %41, align 8
  %43 = load i32, i32* %5, align 4
  %44 = sext i32 %43 to i64
  %45 = getelementptr inbounds i8, i8* %42, i64 %44
  %46 = load i8, i8* %45, align 1
  %47 = sext i8 %46 to i32
  %48 = icmp eq i32 %47, 95
  br i1 %48, label %97, label %49

49:                                               ; preds = %37
  %50 = load i8**, i8*** %6, align 8
  %51 = load i32, i32* %3, align 4
  %52 = sext i32 %51 to i64
  %53 = getelementptr inbounds i8*, i8** %50, i64 %52
  %54 = load i8*, i8** %53, align 8
  %55 = load i32, i32* %5, align 4
  %56 = sext i32 %55 to i64
  %57 = getelementptr inbounds i8, i8* %54, i64 %56
  %58 = load i8, i8* %57, align 1
  %59 = sext i8 %58 to i32
  %60 = icmp sle i32 %59, 90
  br i1 %60, label %61, label %73

61:                                               ; preds = %49
  %62 = load i8**, i8*** %6, align 8
  %63 = load i32, i32* %3, align 4
  %64 = sext i32 %63 to i64
  %65 = getelementptr inbounds i8*, i8** %62, i64 %64
  %66 = load i8*, i8** %65, align 8
  %67 = load i32, i32* %5, align 4
  %68 = sext i32 %67 to i64
  %69 = getelementptr inbounds i8, i8* %66, i64 %68
  %70 = load i8, i8* %69, align 1
  %71 = sext i8 %70 to i32
  %72 = icmp sge i32 %71, 65
  br i1 %72, label %97, label %73

73:                                               ; preds = %61, %49
  %74 = load i8**, i8*** %6, align 8
  %75 = load i32, i32* %3, align 4
  %76 = sext i32 %75 to i64
  %77 = getelementptr inbounds i8*, i8** %74, i64 %76
  %78 = load i8*, i8** %77, align 8
  %79 = load i32, i32* %5, align 4
  %80 = sext i32 %79 to i64
  %81 = getelementptr inbounds i8, i8* %78, i64 %80
  %82 = load i8, i8* %81, align 1
  %83 = sext i8 %82 to i32
  %84 = icmp sle i32 %83, 122
  br i1 %84, label %85, label %204

85:                                               ; preds = %73
  %86 = load i8**, i8*** %6, align 8
  %87 = load i32, i32* %3, align 4
  %88 = sext i32 %87 to i64
  %89 = getelementptr inbounds i8*, i8** %86, i64 %88
  %90 = load i8*, i8** %89, align 8
  %91 = load i32, i32* %5, align 4
  %92 = sext i32 %91 to i64
  %93 = getelementptr inbounds i8, i8* %90, i64 %92
  %94 = load i8, i8* %93, align 1
  %95 = sext i8 %94 to i32
  %96 = icmp sge i32 %95, 97
  br i1 %96, label %97, label %204

97:                                               ; preds = %85, %61, %37
  br label %98

98:                                               ; preds = %191, %97
  %99 = load i8**, i8*** %6, align 8
  %100 = load i32, i32* %3, align 4
  %101 = sext i32 %100 to i64
  %102 = getelementptr inbounds i8*, i8** %99, i64 %101
  %103 = load i8*, i8** %102, align 8
  %104 = load i32, i32* %5, align 4
  %105 = sext i32 %104 to i64
  %106 = getelementptr inbounds i8, i8* %103, i64 %105
  %107 = load i8, i8* %106, align 1
  %108 = sext i8 %107 to i32
  %109 = icmp eq i32 %108, 95
  br i1 %109, label %182, label %110

110:                                              ; preds = %98
  %111 = load i8**, i8*** %6, align 8
  %112 = load i32, i32* %3, align 4
  %113 = sext i32 %112 to i64
  %114 = getelementptr inbounds i8*, i8** %111, i64 %113
  %115 = load i8*, i8** %114, align 8
  %116 = load i32, i32* %5, align 4
  %117 = sext i32 %116 to i64
  %118 = getelementptr inbounds i8, i8* %115, i64 %117
  %119 = load i8, i8* %118, align 1
  %120 = sext i8 %119 to i32
  %121 = icmp sge i32 %120, 48
  br i1 %121, label %122, label %134

122:                                              ; preds = %110
  %123 = load i8**, i8*** %6, align 8
  %124 = load i32, i32* %3, align 4
  %125 = sext i32 %124 to i64
  %126 = getelementptr inbounds i8*, i8** %123, i64 %125
  %127 = load i8*, i8** %126, align 8
  %128 = load i32, i32* %5, align 4
  %129 = sext i32 %128 to i64
  %130 = getelementptr inbounds i8, i8* %127, i64 %129
  %131 = load i8, i8* %130, align 1
  %132 = sext i8 %131 to i32
  %133 = icmp sle i32 %132, 57
  br i1 %133, label %182, label %134

134:                                              ; preds = %122, %110
  %135 = load i8**, i8*** %6, align 8
  %136 = load i32, i32* %3, align 4
  %137 = sext i32 %136 to i64
  %138 = getelementptr inbounds i8*, i8** %135, i64 %137
  %139 = load i8*, i8** %138, align 8
  %140 = load i32, i32* %5, align 4
  %141 = sext i32 %140 to i64
  %142 = getelementptr inbounds i8, i8* %139, i64 %141
  %143 = load i8, i8* %142, align 1
  %144 = sext i8 %143 to i32
  %145 = icmp sle i32 %144, 90
  br i1 %145, label %146, label %158

146:                                              ; preds = %134
  %147 = load i8**, i8*** %6, align 8
  %148 = load i32, i32* %3, align 4
  %149 = sext i32 %148 to i64
  %150 = getelementptr inbounds i8*, i8** %147, i64 %149
  %151 = load i8*, i8** %150, align 8
  %152 = load i32, i32* %5, align 4
  %153 = sext i32 %152 to i64
  %154 = getelementptr inbounds i8, i8* %151, i64 %153
  %155 = load i8, i8* %154, align 1
  %156 = sext i8 %155 to i32
  %157 = icmp sge i32 %156, 65
  br i1 %157, label %182, label %158

158:                                              ; preds = %146, %134
  %159 = load i8**, i8*** %6, align 8
  %160 = load i32, i32* %3, align 4
  %161 = sext i32 %160 to i64
  %162 = getelementptr inbounds i8*, i8** %159, i64 %161
  %163 = load i8*, i8** %162, align 8
  %164 = load i32, i32* %5, align 4
  %165 = sext i32 %164 to i64
  %166 = getelementptr inbounds i8, i8* %163, i64 %165
  %167 = load i8, i8* %166, align 1
  %168 = sext i8 %167 to i32
  %169 = icmp sle i32 %168, 122
  br i1 %169, label %170, label %183

170:                                              ; preds = %158
  %171 = load i8**, i8*** %6, align 8
  %172 = load i32, i32* %3, align 4
  %173 = sext i32 %172 to i64
  %174 = getelementptr inbounds i8*, i8** %171, i64 %173
  %175 = load i8*, i8** %174, align 8
  %176 = load i32, i32* %5, align 4
  %177 = sext i32 %176 to i64
  %178 = getelementptr inbounds i8, i8* %175, i64 %177
  %179 = load i8, i8* %178, align 1
  %180 = sext i8 %179 to i32
  %181 = icmp sge i32 %180, 97
  br i1 %181, label %182, label %183

182:                                              ; preds = %170, %146, %122, %98
  store i32 1, i32* %4, align 4
  br label %184

183:                                              ; preds = %170, %158
  store i32 0, i32* %4, align 4
  br label %203

184:                                              ; preds = %182
  %185 = load i32, i32* %5, align 4
  %186 = add nsw i32 %185, 1
  store i32 %186, i32* %5, align 4
  %187 = load i32, i32* %4, align 4
  %188 = icmp eq i32 %187, 0
  br i1 %188, label %189, label %190

189:                                              ; preds = %184
  br label %203

190:                                              ; preds = %184
  br label %191

191:                                              ; preds = %190
  %192 = load i8**, i8*** %6, align 8
  %193 = load i32, i32* %3, align 4
  %194 = sext i32 %193 to i64
  %195 = getelementptr inbounds i8*, i8** %192, i64 %194
  %196 = load i8*, i8** %195, align 8
  %197 = load i32, i32* %5, align 4
  %198 = sext i32 %197 to i64
  %199 = getelementptr inbounds i8, i8* %196, i64 %198
  %200 = load i8, i8* %199, align 1
  %201 = sext i8 %200 to i32
  %202 = icmp ne i32 %201, 0
  br i1 %202, label %98, label %203

203:                                              ; preds = %191, %189, %183
  br label %204

204:                                              ; preds = %203, %85, %73
  %205 = load i32, i32* %4, align 4
  %206 = call i32 (i8*, ...) @printf(i8* getelementptr inbounds ([4 x i8], [4 x i8]* @.str.1, i64 0, i64 0), i32 %205)
  br label %207

207:                                              ; preds = %204
  %208 = load i32, i32* %3, align 4
  %209 = add nsw i32 %208, 1
  store i32 %209, i32* %3, align 4
  br label %33

210:                                              ; preds = %33
  ret i32 0
}

declare dso_local i32 @__isoc99_scanf(i8*, ...) #1

declare dso_local i32 @getchar() #1

; Function Attrs: nounwind
declare dso_local noalias i8* @malloc(i64) #2

declare dso_local i32 @gets(...) #1

declare dso_local i32 @printf(i8*, ...) #1


!llvm.module.flags = !{!0}
!llvm.ident = !{!1}

!0 = !{i32 1, !"wchar_size", i32 4}
!1 = !{!"clang version 10.0.0-4ubuntu1 "}
