; ModuleID = 'source-C-CXX/57/657.c'
source_filename = "source-C-CXX/57/657.c"
target datalayout = "e-m:e-p270:32:32-p271:32:32-p272:64:64-i64:64-f80:128-n8:16:32:64-S128"
target triple = "x86_64-pc-linux-gnu"

%struct._IO_FILE = type { i32, i8*, i8*, i8*, i8*, i8*, i8*, i8*, i8*, i8*, i8*, i8*, %struct._IO_marker*, %struct._IO_FILE*, i32, i32, i64, i16, i8, [1 x i8], i8*, i64, %struct._IO_codecvt*, %struct._IO_wide_data*, %struct._IO_FILE*, i8*, i64, i32, [20 x i8] }
%struct._IO_marker = type opaque
%struct._IO_codecvt = type opaque
%struct._IO_wide_data = type opaque

@.str = private unnamed_addr constant [3 x i8] c"%d\00", align 1
@.str.1 = private unnamed_addr constant [4 x i8] c"%d\0A\00", align 1
@stdin = external local_unnamed_addr global %struct._IO_FILE*, align 8

; Function Attrs: nounwind sspstrong uwtable
define dso_local i32 @main() local_unnamed_addr #0 {
  %1 = alloca i32, align 4
  %2 = bitcast i32* %1 to i8*
  call void @llvm.lifetime.start.p0i8(i64 4, i8* nonnull %2) #5
  %3 = call i32 (i8*, ...) @__isoc99_scanf(i8* getelementptr inbounds ([3 x i8], [3 x i8]* @.str, i64 0, i64 0), i32* nonnull %1)
  %4 = load %struct._IO_FILE*, %struct._IO_FILE** @stdin, align 8, !tbaa !5
  %5 = call i32 @getc(%struct._IO_FILE* %4) #5
  %6 = call noalias align 16 dereferenceable_or_null(8000) i8* @malloc(i64 8000) #5
  %7 = bitcast i8* %6 to i8**
  %8 = load i32, i32* %1, align 4, !tbaa !9
  %9 = icmp sgt i32 %8, 0
  br i1 %9, label %12, label %56

10:                                               ; preds = %12
  %11 = icmp sgt i32 %18, 0
  br i1 %11, label %21, label %56

12:                                               ; preds = %0, %12
  %13 = phi i64 [ %17, %12 ], [ 0, %0 ]
  %14 = call noalias align 16 dereferenceable_or_null(80) i8* @malloc(i64 80) #5
  %15 = getelementptr inbounds i8*, i8** %7, i64 %13
  store i8* %14, i8** %15, align 8, !tbaa !5
  %16 = call i32 (i8*, ...) bitcast (i32 (...)* @gets to i32 (i8*, ...)*)(i8* %14) #5
  %17 = add nuw nsw i64 %13, 1
  %18 = load i32, i32* %1, align 4, !tbaa !9
  %19 = sext i32 %18 to i64
  %20 = icmp slt i64 %17, %19
  br i1 %20, label %12, label %10, !llvm.loop !11

21:                                               ; preds = %10, %49
  %22 = phi i64 [ %52, %49 ], [ 0, %10 ]
  %23 = getelementptr inbounds i8*, i8** %7, i64 %22
  %24 = load i8*, i8** %23, align 8, !tbaa !5
  %25 = load i8, i8* %24, align 1, !tbaa !13
  %26 = icmp eq i8 %25, 95
  %27 = and i8 %25, -33
  %28 = add i8 %27, -65
  %29 = icmp ult i8 %28, 26
  %30 = or i1 %29, %26
  br i1 %30, label %31, label %49

31:                                               ; preds = %21, %44
  %32 = phi i8 [ %47, %44 ], [ %25, %21 ]
  %33 = phi i64 [ %45, %44 ], [ 0, %21 ]
  %34 = icmp eq i8 %32, 95
  %35 = add i8 %32, -48
  %36 = icmp ult i8 %35, 10
  %37 = or i1 %34, %36
  %38 = add i8 %32, -65
  %39 = icmp ult i8 %38, 26
  %40 = or i1 %39, %37
  %41 = add i8 %32, -97
  %42 = icmp ult i8 %41, 26
  %43 = select i1 %40, i1 true, i1 %42
  br i1 %43, label %44, label %49

44:                                               ; preds = %31
  %45 = add nuw i64 %33, 1
  %46 = getelementptr inbounds i8, i8* %24, i64 %45
  %47 = load i8, i8* %46, align 1, !tbaa !13
  %48 = icmp eq i8 %47, 0
  br i1 %48, label %49, label %31, !llvm.loop !14

49:                                               ; preds = %31, %44, %21
  %50 = phi i32 [ 0, %21 ], [ 0, %31 ], [ 1, %44 ]
  %51 = call i32 (i8*, ...) @printf(i8* nonnull dereferenceable(1) getelementptr inbounds ([4 x i8], [4 x i8]* @.str.1, i64 0, i64 0), i32 %50)
  %52 = add nuw nsw i64 %22, 1
  %53 = load i32, i32* %1, align 4, !tbaa !9
  %54 = sext i32 %53 to i64
  %55 = icmp slt i64 %52, %54
  br i1 %55, label %21, label %56, !llvm.loop !15

56:                                               ; preds = %49, %0, %10
  call void @llvm.lifetime.end.p0i8(i64 4, i8* nonnull %2) #5
  ret i32 0
}

; Function Attrs: argmemonly mustprogress nofree nosync nounwind willreturn
declare void @llvm.lifetime.start.p0i8(i64 immarg, i8* nocapture) #1

; Function Attrs: nofree nounwind
declare noundef i32 @__isoc99_scanf(i8* nocapture noundef readonly, ...) local_unnamed_addr #2

; Function Attrs: inaccessiblememonly mustprogress nofree nounwind willreturn
declare noalias noundef align 16 i8* @malloc(i64 noundef) local_unnamed_addr #3

declare i32 @gets(...) local_unnamed_addr #4

; Function Attrs: nofree nounwind
declare noundef i32 @printf(i8* nocapture noundef readonly, ...) local_unnamed_addr #2

; Function Attrs: argmemonly mustprogress nofree nosync nounwind willreturn
declare void @llvm.lifetime.end.p0i8(i64 immarg, i8* nocapture) #1

; Function Attrs: nofree nounwind
declare noundef i32 @getc(%struct._IO_FILE* nocapture noundef) local_unnamed_addr #2


!llvm.module.flags = !{!0, !1, !2, !3}
!llvm.ident = !{!4}

!0 = !{i32 1, !"wchar_size", i32 4}
!1 = !{i32 7, !"PIC Level", i32 2}
!2 = !{i32 7, !"PIE Level", i32 2}
!3 = !{i32 7, !"uwtable", i32 1}
!4 = !{!"clang version 13.0.0"}
!5 = !{!6, !6, i64 0}
!6 = !{!"any pointer", !7, i64 0}
!7 = !{!"omnipotent char", !8, i64 0}
!8 = !{!"Simple C/C++ TBAA"}
!9 = !{!10, !10, i64 0}
!10 = !{!"int", !7, i64 0}
!11 = distinct !{!11, !12}
!12 = !{!"llvm.loop.mustprogress"}
!13 = !{!7, !7, i64 0}
!14 = distinct !{!14, !12}
!15 = distinct !{!15, !12}
